; Function Attrs: nounwind uwtable
define dso_local i64 @hashcidextended(ptr noundef readonly captures(none) %0) local_unnamed_addr #0 {
  %2 = getelementptr inbounds nuw i8, ptr %0, i64 32
  %3 = load i64, ptr %2, align 8
  %4 = trunc i64 %3 to i32
  %5 = getelementptr inbounds nuw i8, ptr %0, i64 48
  %6 = load i64, ptr %5, align 8
  %7 = tail call i64 @hash_bytes_uint32_extended(i32 noundef %4, i64 noundef %6) #7
  ret i64 %7
}